; Function Attrs: mustprogress uwtable
define internal noundef i64 @_ZN12_GLOBAL__N_12RW4readEPvm(ptr nocapture noundef nonnull readonly align 8 dereferenceable(48) %0, ptr noundef %1, i64 noundef %2) unnamed_addr #0 align 2 {
  %4 = getelementptr inbounds i8, ptr %0, i64 16
  %5 = load ptr, ptr %4, align 8
  %6 = load ptr, ptr %5, align 8
  %7 = getelementptr inbounds i8, ptr %6, i64 32
  %8 = load ptr, ptr %7, align 8
  %9 = tail call noundef i64 %8(ptr noundef nonnull align 8 dereferenceable(8) %5, ptr noundef %1, i64 noundef %2)
  ret i64 %9
}